; Function Attrs: null_pointer_is_valid sspstrong uwtable
define internal i32 @dissect_h245_GenericInformation(ptr noundef %0, i32 noundef %1, ptr noundef %2, ptr noundef %3, i32 noundef %4) #1 {
  %6 = getelementptr inbounds nuw i8, ptr %2, i64 48
  %7 = load ptr, ptr %6, align 8
  %8 = getelementptr inbounds nuw i8, ptr %2, i64 16
  %9 = load ptr, ptr %8, align 8
  %10 = getelementptr inbounds nuw i8, ptr %9, i64 408
  %11 = load ptr, ptr %10, align 8
  %12 = tail call ptr @gef_ctx_alloc(ptr noundef %11, ptr noundef null, ptr noundef nonnull @.str.292)
  store ptr %12, ptr %6, align 8
  %13 = tail call ptr @gef_ctx_get(ptr noundef %12)
  %.not.i = icmp eq ptr %13, null
  br i1 %.not.i, label %14, label %dissect_h245_GenericMessage.exit

14:                                               ; preds = %5
  %15 = load ptr, ptr %8, align 8
  %16 = getelementptr inbounds nuw i8, ptr %15, i64 408
  %17 = load ptr, ptr %16, align 8
  %18 = tail call ptr @gef_ctx_alloc(ptr noundef %17, ptr noundef null, ptr noundef nonnull @.str.107)
  store ptr %18, ptr %6, align 8
  br label %dissect_h245_GenericMessage.exit

dissect_h245_GenericMessage.exit:                 ; preds = %5, %14
  %19 = load i32, ptr @ett_h245_GenericMessage, align 4
  %20 = tail call i32 @dissect_per_sequence(ptr noundef %0, i32 noundef %1, ptr noundef %2, ptr noundef %3, i32 noundef %4, i32 noundef %19, ptr noundef nonnull @GenericMessage_sequence)
  store ptr %7, ptr %6, align 8
  ret i32 %20
}